; Function Attrs: nounwind uwtable
define noalias nonnull ptr @l_Lean_PrettyPrinter_Delaborator_isFOLike(ptr noundef %0, ptr readnone captures(none) %1, ptr readnone captures(none) %2, ptr readnone captures(none) %3, ptr readnone captures(none) %4, ptr noundef %5) local_unnamed_addr #1 {
  %7 = tail call ptr @l_Lean_Expr_getAppFn(ptr noundef %0) #7
  %8 = tail call zeroext i8 @l_Lean_Expr_isFVar(ptr noundef %7) #7
  %9 = icmp eq i8 %8, 0
  br i1 %9, label %10, label %28

10:                                               ; preds = %6
  %11 = tail call zeroext i8 @l_Lean_Expr_isConst(ptr noundef %7) #7
  %12 = ptrtoint ptr %7 to i64
  %13 = and i64 %12, 1
  %.not22 = icmp eq i64 %13, 0
  br i1 %.not22, label %14, label %lean_dec.exit18

14:                                               ; preds = %10
  %15 = load i32, ptr %7, align 4, !tbaa !8
  %16 = icmp sgt i32 %15, 1
  br i1 %16, label %17, label %19, !prof !13

17:                                               ; preds = %14
  %18 = add nsw i32 %15, -1
  store i32 %18, ptr %7, align 4, !tbaa !8
  br label %lean_dec.exit18

19:                                               ; preds = %14
  %.not.i = icmp eq i32 %15, 0
  br i1 %.not.i, label %lean_dec.exit18, label %20

20:                                               ; preds = %19
  tail call void @lean_dec_ref_cold(ptr noundef nonnull %7) #7
  br label %lean_dec.exit18

lean_dec.exit18:                                  ; preds = %20, %19, %17, %10
  tail call void @lean_inc_heartbeat() #7
  %21 = tail call noalias ptr @mi_malloc_small(i64 noundef 24) #7
  %22 = icmp eq ptr %21, null
  br i1 %22, label %23, label %lean_alloc_ctor.exit

23:                                               ; preds = %lean_dec.exit18
  tail call void @lean_internal_panic_out_of_memory() #8
  unreachable

lean_alloc_ctor.exit:                             ; preds = %lean_dec.exit18
  %24 = zext i8 %11 to i64
  %25 = shl nuw nsw i64 %24, 1
  %26 = or disjoint i64 %25, 1
  %27 = inttoptr i64 %26 to ptr
  br label %lean_alloc_ctor.exit21

28:                                               ; preds = %6
  %29 = ptrtoint ptr %7 to i64
  %30 = and i64 %29, 1
  %.not = icmp eq i64 %30, 0
  br i1 %.not, label %31, label %lean_dec.exit

31:                                               ; preds = %28
  %32 = load i32, ptr %7, align 4, !tbaa !8
  %33 = icmp sgt i32 %32, 1
  br i1 %33, label %34, label %36, !prof !13

34:                                               ; preds = %31
  %35 = add nsw i32 %32, -1
  store i32 %35, ptr %7, align 4, !tbaa !8
  br label %lean_dec.exit

36:                                               ; preds = %31
  %.not.i19 = icmp eq i32 %32, 0
  br i1 %.not.i19, label %lean_dec.exit, label %37

37:                                               ; preds = %36
  tail call void @lean_dec_ref_cold(ptr noundef nonnull %7) #7
  br label %lean_dec.exit

lean_dec.exit:                                    ; preds = %37, %36, %34, %28
  tail call void @lean_inc_heartbeat() #7
  %38 = tail call noalias ptr @mi_malloc_small(i64 noundef 24) #7
  %39 = icmp eq ptr %38, null
  br i1 %39, label %40, label %lean_alloc_ctor.exit21

40:                                               ; preds = %lean_dec.exit
  tail call void @lean_internal_panic_out_of_memory() #8
  unreachable

lean_alloc_ctor.exit21:                           ; preds = %lean_dec.exit, %lean_alloc_ctor.exit
  %.sink28 = phi ptr [ %21, %lean_alloc_ctor.exit ], [ %38, %lean_dec.exit ]
  %.sink = phi ptr [ %27, %lean_alloc_ctor.exit ], [ inttoptr (i64 3 to ptr), %lean_dec.exit ]
  %41 = getelementptr inbounds nuw i8, ptr %.sink28, i64 4
  store i32 1, ptr %.sink28, align 4, !tbaa !8
  store i32 131096, ptr %41, align 4
  %42 = getelementptr inbounds nuw i8, ptr %.sink28, i64 8
  store ptr %.sink, ptr %42, align 8, !tbaa !11
  %43 = getelementptr inbounds nuw i8, ptr %.sink28, i64 16
  store ptr %5, ptr %43, align 8, !tbaa !11
  ret ptr %.sink28
}